target datalayout = "e-m:e-p270:32:32-p271:32:32-p272:64:64-i64:64-i128:128-f80:128-n8:16:32:64-S128"
target triple = "x86_64-pc-linux-gnu"

%struct.FFDemuxSubtitlesQueue = type { ptr, i32, i32, i32, i32, i32 }
%struct.AVPacket = type { ptr, i64, i64, ptr, i32, i32, i32, ptr, i32, i64, i64, ptr, ptr, %struct.AVRational }
%struct.AVRational = type { i32, i32 }

; Function Attrs: nounwind uwtable
define ptr @ff_subtitles_queue_insert(ptr noundef %0, ptr noundef %1, i64 noundef %2, i32 noundef %3) #0 {
  %5 = alloca ptr, align 8
  %6 = alloca ptr, align 8
  %7 = alloca ptr, align 8
  %8 = alloca i64, align 8
  %9 = alloca i32, align 4
  %10 = alloca ptr, align 8
  %11 = alloca ptr, align 8
  %12 = alloca i32, align 4
  %13 = alloca i32, align 4
  store ptr %0, ptr %6, align 8, !tbaa !4
  store ptr %1, ptr %7, align 8, !tbaa !27
  store i64 %2, ptr %8, align 8, !tbaa !25
  store i32 %3, ptr %9, align 4, !tbaa !21
  call void @llvm.lifetime.start.p0(i64 8, ptr %10) #9
  call void @llvm.lifetime.start.p0(i64 8, ptr %11) #9
  %14 = load i32, ptr %9, align 4, !tbaa !21
  %15 = icmp ne i32 %14, 0
  br i1 %15, label %16, label %57

16:                                               ; preds = %4
  %17 = load ptr, ptr %6, align 8, !tbaa !4
  %18 = getelementptr inbounds nuw %struct.FFDemuxSubtitlesQueue, ptr %17, i32 0, i32 1
  %19 = load i32, ptr %18, align 8, !tbaa !29
  %20 = icmp sgt i32 %19, 0
  br i1 %20, label %21, label %57

21:                                               ; preds = %16
  call void @llvm.lifetime.start.p0(i64 4, ptr %12) #9
  %22 = load ptr, ptr %6, align 8, !tbaa !4
  %23 = getelementptr inbounds nuw %struct.FFDemuxSubtitlesQueue, ptr %22, i32 0, i32 0
  %24 = load ptr, ptr %23, align 8, !tbaa !33
  %25 = load ptr, ptr %6, align 8, !tbaa !4
  %26 = getelementptr inbounds nuw %struct.FFDemuxSubtitlesQueue, ptr %25, i32 0, i32 1
  %27 = load i32, ptr %26, align 8, !tbaa !29
  %28 = sub nsw i32 %27, 1
  %29 = sext i32 %28 to i64
  %30 = getelementptr inbounds ptr, ptr %24, i64 %29
  %31 = load ptr, ptr %30, align 8, !tbaa !34
  store ptr %31, ptr %11, align 8, !tbaa !34
  %32 = load ptr, ptr %11, align 8, !tbaa !34
  %33 = getelementptr inbounds nuw %struct.AVPacket, ptr %32, i32 0, i32 4
  %34 = load i32, ptr %33, align 8, !tbaa !36
  store i32 %34, ptr %12, align 4, !tbaa !21
  %35 = load ptr, ptr %7, align 8, !tbaa !27
  %36 = icmp ne ptr %35, null
  br i1 %36, label %37, label %53

37:                                               ; preds = %21
  %38 = load ptr, ptr %11, align 8, !tbaa !34
  %39 = load i64, ptr %8, align 8, !tbaa !25
  %40 = trunc i64 %39 to i32
  %41 = call i32 @av_grow_packet(ptr noundef %38, i32 noundef %40)
  %42 = icmp slt i32 %41, 0
  br i1 %42, label %43, label %44

43:                                               ; preds = %37
  store ptr null, ptr %5, align 8
  store i32 1, ptr %13, align 4
  br label %54

44:                                               ; preds = %37
  %45 = load ptr, ptr %11, align 8, !tbaa !34
  %46 = getelementptr inbounds nuw %struct.AVPacket, ptr %45, i32 0, i32 3
  %47 = load ptr, ptr %46, align 8, !tbaa !41
  %48 = load i32, ptr %12, align 4, !tbaa !21
  %49 = sext i32 %48 to i64
  %50 = getelementptr inbounds i8, ptr %47, i64 %49
  %51 = load ptr, ptr %7, align 8, !tbaa !27
  %52 = load i64, ptr %8, align 8, !tbaa !25
  call void @llvm.memcpy.p0.p0.i64(ptr align 1 %50, ptr align 1 %51, i64 %52, i1 false)
  br label %53

53:                                               ; preds = %44, %21
  store i32 0, ptr %13, align 4
  br label %54

54:                                               ; preds = %53, %43
  call void @llvm.lifetime.end.p0(i64 4, ptr %12) #9
  %55 = load i32, ptr %13, align 4
  switch i32 %55, label %123 [
    i32 0, label %56
  ]

56:                                               ; preds = %54
  br label %121

57:                                               ; preds = %16, %4
  %58 = load ptr, ptr %6, align 8, !tbaa !4
  %59 = getelementptr inbounds nuw %struct.FFDemuxSubtitlesQueue, ptr %58, i32 0, i32 1
  %60 = load i32, ptr %59, align 8, !tbaa !29
  %61 = sext i32 %60 to i64
  %62 = icmp uge i64 %61, 268435454
  br i1 %62, label %63, label %64

63:                                               ; preds = %57
  store ptr null, ptr %5, align 8
  store i32 1, ptr %13, align 4
  br label %123

64:                                               ; preds = %57
  %65 = load ptr, ptr %6, align 8, !tbaa !4
  %66 = getelementptr inbounds nuw %struct.FFDemuxSubtitlesQueue, ptr %65, i32 0, i32 0
  %67 = load ptr, ptr %66, align 8, !tbaa !33
  %68 = load ptr, ptr %6, align 8, !tbaa !4
  %69 = getelementptr inbounds nuw %struct.FFDemuxSubtitlesQueue, ptr %68, i32 0, i32 2
  %70 = load ptr, ptr %6, align 8, !tbaa !4
  %71 = getelementptr inbounds nuw %struct.FFDemuxSubtitlesQueue, ptr %70, i32 0, i32 1
  %72 = load i32, ptr %71, align 8, !tbaa !29
  %73 = add nsw i32 %72, 1
  %74 = sext i32 %73 to i64
  %75 = mul i64 %74, 8
  %76 = call ptr @av_fast_realloc(ptr noundef %67, ptr noundef %69, i64 noundef %75)
  store ptr %76, ptr %10, align 8, !tbaa !42
  %77 = load ptr, ptr %10, align 8, !tbaa !42
  %78 = icmp ne ptr %77, null
  br i1 %78, label %80, label %79

79:                                               ; preds = %64
  store ptr null, ptr %5, align 8
  store i32 1, ptr %13, align 4
  br label %123

80:                                               ; preds = %64
  %81 = load ptr, ptr %10, align 8, !tbaa !42
  %82 = load ptr, ptr %6, align 8, !tbaa !4
  %83 = getelementptr inbounds nuw %struct.FFDemuxSubtitlesQueue, ptr %82, i32 0, i32 0
  store ptr %81, ptr %83, align 8, !tbaa !33
  %84 = call ptr @av_packet_alloc()
  store ptr %84, ptr %11, align 8, !tbaa !34
  %85 = load ptr, ptr %11, align 8, !tbaa !34
  %86 = icmp ne ptr %85, null
  br i1 %86, label %88, label %87

87:                                               ; preds = %80
  store ptr null, ptr %5, align 8
  store i32 1, ptr %13, align 4
  br label %123

88:                                               ; preds = %80
  %89 = load ptr, ptr %7, align 8, !tbaa !27
  %90 = icmp ne ptr %89, null
  br i1 %90, label %91, label %104

91:                                               ; preds = %88
  %92 = load ptr, ptr %11, align 8, !tbaa !34
  %93 = load i64, ptr %8, align 8, !tbaa !25
  %94 = trunc i64 %93 to i32
  %95 = call i32 @av_new_packet(ptr noundef %92, i32 noundef %94)
  %96 = icmp slt i32 %95, 0
  br i1 %96, label %97, label %98

97:                                               ; preds = %91
  call void @av_packet_free(ptr noundef %11)
  store ptr null, ptr %5, align 8
  store i32 1, ptr %13, align 4
  br label %123

98:                                               ; preds = %91
  %99 = load ptr, ptr %11, align 8, !tbaa !34
  %100 = getelementptr inbounds nuw %struct.AVPacket, ptr %99, i32 0, i32 3
  %101 = load ptr, ptr %100, align 8, !tbaa !41
  %102 = load ptr, ptr %7, align 8, !tbaa !27
  %103 = load i64, ptr %8, align 8, !tbaa !25
  call void @llvm.memcpy.p0.p0.i64(ptr align 1 %101, ptr align 1 %102, i64 %103, i1 false)
  br label %104

104:                                              ; preds = %98, %88
  %105 = load ptr, ptr %11, align 8, !tbaa !34
  %106 = getelementptr inbounds nuw %struct.AVPacket, ptr %105, i32 0, i32 6
  %107 = load i32, ptr %106, align 8, !tbaa !43
  %108 = or i32 %107, 1
  store i32 %108, ptr %106, align 8, !tbaa !43
  %109 = load ptr, ptr %11, align 8, !tbaa !34
  %110 = getelementptr inbounds nuw %struct.AVPacket, ptr %109, i32 0, i32 2
  store i64 0, ptr %110, align 8, !tbaa !44
  %111 = load ptr, ptr %11, align 8, !tbaa !34
  %112 = getelementptr inbounds nuw %struct.AVPacket, ptr %111, i32 0, i32 1
  store i64 0, ptr %112, align 8, !tbaa !45
  %113 = load ptr, ptr %11, align 8, !tbaa !34
  %114 = load ptr, ptr %10, align 8, !tbaa !42
  %115 = load ptr, ptr %6, align 8, !tbaa !4
  %116 = getelementptr inbounds nuw %struct.FFDemuxSubtitlesQueue, ptr %115, i32 0, i32 1
  %117 = load i32, ptr %116, align 8, !tbaa !29
  %118 = add nsw i32 %117, 1
  store i32 %118, ptr %116, align 8, !tbaa !29
  %119 = sext i32 %117 to i64
  %120 = getelementptr inbounds ptr, ptr %114, i64 %119
  store ptr %113, ptr %120, align 8, !tbaa !34
  br label %121

121:                                              ; preds = %104, %56
  %122 = load ptr, ptr %11, align 8, !tbaa !34
  store ptr %122, ptr %5, align 8
  store i32 1, ptr %13, align 4
  br label %123

123:                                              ; preds = %121, %97, %87, %79, %63, %54
  call void @llvm.lifetime.end.p0(i64 8, ptr %11) #9
  call void @llvm.lifetime.end.p0(i64 8, ptr %10) #9
  %124 = load ptr, ptr %5, align 8
  ret ptr %124
}