; Function Attrs: nounwind uwtable
define ptr @ff_subtitles_queue_insert(ptr noundef %0, ptr noundef readonly captures(address_is_null) %1, i64 noundef %2, i32 noundef %3) local_unnamed_addr #0 {
  %5 = alloca ptr, align 8
  call void @llvm.lifetime.start.p0(i64 8, ptr nonnull %5) #11
  %.not = icmp ne i32 %3, 0
  %.phi.trans.insert = getelementptr inbounds nuw i8, ptr %0, i64 8
  %.pre = load i32, ptr %.phi.trans.insert, align 8, !tbaa !23
  %6 = icmp sgt i32 %.pre, 0
  %or.cond = select i1 %.not, i1 %6, i1 false
  br i1 %or.cond, label %7, label %._crit_edge

7:                                                ; preds = %4
  %8 = load ptr, ptr %0, align 8, !tbaa !27
  %9 = zext nneg i32 %.pre to i64
  %10 = getelementptr ptr, ptr %8, i64 %9
  %11 = getelementptr i8, ptr %10, i64 -8
  %12 = load ptr, ptr %11, align 8, !tbaa !28
  %13 = getelementptr inbounds nuw i8, ptr %12, i64 32
  %14 = load i32, ptr %13, align 8, !tbaa !30
  %.not32 = icmp eq ptr %1, null
  br i1 %.not32, label %.critedge, label %15

15:                                               ; preds = %7
  %16 = trunc i64 %2 to i32
  %17 = tail call i32 @av_grow_packet(ptr noundef nonnull %12, i32 noundef %16) #11
  %18 = icmp slt i32 %17, 0
  br i1 %18, label %.critedge, label %19

19:                                               ; preds = %15
  %20 = getelementptr inbounds nuw i8, ptr %12, i64 24
  %21 = load ptr, ptr %20, align 8, !tbaa !35
  %22 = sext i32 %14 to i64
  %23 = getelementptr inbounds i8, ptr %21, i64 %22
  tail call void @llvm.memcpy.p0.p0.i64(ptr align 1 %23, ptr nonnull align 1 %1, i64 %2, i1 false)
  br label %.critedge

._crit_edge:                                      ; preds = %4
  %24 = getelementptr inbounds nuw i8, ptr %0, i64 8
  %25 = icmp ugt i32 %.pre, 268435453
  br i1 %25, label %.critedge, label %26

26:                                               ; preds = %._crit_edge
  %27 = load ptr, ptr %0, align 8, !tbaa !27
  %28 = getelementptr inbounds nuw i8, ptr %0, i64 12
  %29 = shl nuw nsw i32 %.pre, 3
  %30 = add nuw nsw i32 %29, 8
  %31 = zext nneg i32 %30 to i64
  %32 = tail call ptr @av_fast_realloc(ptr noundef %27, ptr noundef nonnull %28, i64 noundef %31) #11
  %.not29 = icmp eq ptr %32, null
  br i1 %.not29, label %.critedge, label %33

33:                                               ; preds = %26
  store ptr %32, ptr %0, align 8, !tbaa !27
  %34 = tail call ptr @av_packet_alloc() #11
  store ptr %34, ptr %5, align 8, !tbaa !28
  %.not30 = icmp eq ptr %34, null
  br i1 %.not30, label %.critedge, label %35

35:                                               ; preds = %33
  %.not31 = icmp eq ptr %1, null
  br i1 %.not31, label %44, label %36

36:                                               ; preds = %35
  %37 = trunc i64 %2 to i32
  %38 = tail call i32 @av_new_packet(ptr noundef nonnull %34, i32 noundef %37) #11
  %39 = icmp slt i32 %38, 0
  br i1 %39, label %40, label %41

40:                                               ; preds = %36
  call void @av_packet_free(ptr noundef nonnull %5) #11
  br label %.critedge

41:                                               ; preds = %36
  %42 = getelementptr inbounds nuw i8, ptr %34, i64 24
  %43 = load ptr, ptr %42, align 8, !tbaa !35
  tail call void @llvm.memcpy.p0.p0.i64(ptr align 1 %43, ptr nonnull align 1 %1, i64 %2, i1 false)
  br label %44

44:                                               ; preds = %41, %35
  %45 = getelementptr inbounds nuw i8, ptr %34, i64 40
  %46 = load i32, ptr %45, align 8, !tbaa !36
  %47 = or i32 %46, 1
  store i32 %47, ptr %45, align 8, !tbaa !36
  %48 = getelementptr inbounds nuw i8, ptr %34, i64 8
  tail call void @llvm.memset.p0.i64(ptr noundef nonnull align 8 dereferenceable(16) %48, i8 0, i64 16, i1 false)
  %49 = load i32, ptr %24, align 8, !tbaa !23
  %50 = add nsw i32 %49, 1
  store i32 %50, ptr %24, align 8, !tbaa !23
  %51 = sext i32 %49 to i64
  %52 = getelementptr inbounds ptr, ptr %32, i64 %51
  store ptr %34, ptr %52, align 8, !tbaa !28
  br label %.critedge

.critedge:                                        ; preds = %44, %7, %19, %15, %33, %26, %._crit_edge, %40
  %.1 = phi ptr [ null, %40 ], [ null, %._crit_edge ], [ null, %26 ], [ null, %33 ], [ null, %15 ], [ %12, %19 ], [ %12, %7 ], [ %34, %44 ]
  call void @llvm.lifetime.end.p0(i64 8, ptr nonnull %5) #11
  ret ptr %.1
}